; Function Attrs: null_pointer_is_valid sspstrong uwtable
define internal i32 @dissect_dnp3_tcp(ptr noundef %0, ptr noundef %1, ptr noundef %2, ptr noundef %3) #0 {
  %5 = tail call i32 @tvb_captured_length(ptr noundef %0)
  %6 = icmp slt i32 %5, 10
  br i1 %6, label %.thread.i, label %7

7:                                                ; preds = %4
  %8 = tail call zeroext i16 @crc16_0x3D65_tvb_offset_seed(ptr noundef %0, i32 noundef 0, i32 noundef 8, i16 noundef zeroext 0)
  %9 = tail call zeroext i16 @tvb_get_letohs(ptr noundef %0, i32 noundef 8)
  %10 = xor i16 %9, %8
  %11 = icmp eq i16 %10, -1
  br label %.thread.i

.thread.i:                                        ; preds = %4, %7
  %brmerge.i = phi i1 [ %11, %7 ], [ true, %4 ]
  %12 = tail call zeroext i8 @tvb_get_uint8(ptr noundef %0, i32 noundef 0)
  %.not.i = icmp eq i8 %12, 5
  br i1 %.not.i, label %13, label %check_dnp3_header.exit.thread

13:                                               ; preds = %.thread.i
  %14 = icmp sgt i32 %5, 1
  br i1 %14, label %15, label %check_dnp3_header.exit

15:                                               ; preds = %13
  %16 = tail call zeroext i8 @tvb_get_uint8(ptr noundef %0, i32 noundef 1)
  %.not14.i = icmp eq i8 %16, 100
  %or.cond.i = select i1 %.not14.i, i1 %brmerge.i, i1 false
  br i1 %or.cond.i, label %check_dnp3_header.exit, label %check_dnp3_header.exit.thread

check_dnp3_header.exit:                           ; preds = %15, %13
  tail call void @tcp_dissect_pdus(ptr noundef %0, ptr noundef %1, ptr noundef %2, i1 noundef zeroext true, i32 noundef 10, ptr noundef nonnull @get_dnp3_message_len, ptr noundef nonnull @dissect_dnp3_message, ptr noundef %3)
  %17 = tail call i32 @tvb_captured_length(ptr noundef %0)
  br label %check_dnp3_header.exit.thread

check_dnp3_header.exit.thread:                    ; preds = %15, %.thread.i, %check_dnp3_header.exit
  %.0 = phi i32 [ %17, %check_dnp3_header.exit ], [ 0, %.thread.i ], [ 0, %15 ]
  ret i32 %.0
}